target datalayout = "e-m:e-p270:32:32-p271:32:32-p272:64:64-i64:64-i128:128-f80:128-n8:16:32:64-S128"
target triple = "x86_64-pc-linux-gnu"

; Function Attrs: inlinehint nounwind uwtable
define internal i32 @ucs1lib_SWAB4(i8 noundef zeroext %0) #2 {
  %2 = alloca i8, align 1
  %3 = alloca i32, align 4
  store i8 %0, ptr %2, align 1, !tbaa !191
  call void @llvm.lifetime.start.p0(i64 4, ptr %3) #12
  %4 = load i8, ptr %2, align 1, !tbaa !191
  %5 = zext i8 %4 to i32
  store i32 %5, ptr %3, align 4, !tbaa !190
  %6 = load i32, ptr %3, align 4, !tbaa !190
  %7 = shl i32 %6, 24
  call void @llvm.lifetime.end.p0(i64 4, ptr %3) #12
  ret i32 %7
}

; Function Attrs: inlinehint nounwind uwtable
define internal i64 @ucs1lib_utf32_encode(ptr noundef %0, i64 noundef %1, ptr noundef %2, i32 noundef %3) #2 {
  %5 = alloca ptr, align 8
  %6 = alloca i64, align 8
  %7 = alloca ptr, align 8
  %8 = alloca i32, align 4
  %9 = alloca ptr, align 8
  %10 = alloca ptr, align 8
  %11 = alloca ptr, align 8
  %12 = alloca i32, align 4
  %13 = alloca ptr, align 8
  %14 = alloca i32, align 4
  store ptr %0, ptr %5, align 8, !tbaa !189
  store i64 %1, ptr %6, align 8, !tbaa !185
  store ptr %2, ptr %7, align 8, !tbaa !283
  store i32 %3, ptr %8, align 4, !tbaa !190
  call void @llvm.lifetime.start.p0(i64 8, ptr %9) #12
  %15 = load ptr, ptr %7, align 8, !tbaa !283
  %16 = load ptr, ptr %15, align 8, !tbaa !210
  store ptr %16, ptr %9, align 8, !tbaa !210
  call void @llvm.lifetime.start.p0(i64 8, ptr %10) #12
  %17 = load ptr, ptr %5, align 8, !tbaa !189
  %18 = load i64, ptr %6, align 8, !tbaa !185
  %19 = getelementptr i8, ptr %17, i64 %18
  store ptr %19, ptr %10, align 8, !tbaa !189
  %20 = load i32, ptr %8, align 4, !tbaa !190
  %21 = icmp ne i32 %20, 0
  br i1 %21, label %22, label %74

22:                                               ; preds = %4
  call void @llvm.lifetime.start.p0(i64 8, ptr %11) #12
  %23 = load ptr, ptr %5, align 8, !tbaa !189
  %24 = load i64, ptr %6, align 8, !tbaa !185
  %25 = and i64 %24, -4
  %26 = getelementptr i8, ptr %23, i64 %25
  store ptr %26, ptr %11, align 8, !tbaa !189
  br label %27

27:                                               ; preds = %31, %22
  %28 = load ptr, ptr %5, align 8, !tbaa !189
  %29 = load ptr, ptr %11, align 8, !tbaa !189
  %30 = icmp ult ptr %28, %29
  br i1 %30, label %31, label %60

31:                                               ; preds = %27
  %32 = load ptr, ptr %5, align 8, !tbaa !189
  %33 = getelementptr i8, ptr %32, i64 0
  %34 = load i8, ptr %33, align 1, !tbaa !191
  %35 = zext i8 %34 to i32
  %36 = load ptr, ptr %9, align 8, !tbaa !210
  %37 = getelementptr i32, ptr %36, i64 0
  store i32 %35, ptr %37, align 4, !tbaa !190
  %38 = load ptr, ptr %5, align 8, !tbaa !189
  %39 = getelementptr i8, ptr %38, i64 1
  %40 = load i8, ptr %39, align 1, !tbaa !191
  %41 = zext i8 %40 to i32
  %42 = load ptr, ptr %9, align 8, !tbaa !210
  %43 = getelementptr i32, ptr %42, i64 1
  store i32 %41, ptr %43, align 4, !tbaa !190
  %44 = load ptr, ptr %5, align 8, !tbaa !189
  %45 = getelementptr i8, ptr %44, i64 2
  %46 = load i8, ptr %45, align 1, !tbaa !191
  %47 = zext i8 %46 to i32
  %48 = load ptr, ptr %9, align 8, !tbaa !210
  %49 = getelementptr i32, ptr %48, i64 2
  store i32 %47, ptr %49, align 4, !tbaa !190
  %50 = load ptr, ptr %5, align 8, !tbaa !189
  %51 = getelementptr i8, ptr %50, i64 3
  %52 = load i8, ptr %51, align 1, !tbaa !191
  %53 = zext i8 %52 to i32
  %54 = load ptr, ptr %9, align 8, !tbaa !210
  %55 = getelementptr i32, ptr %54, i64 3
  store i32 %53, ptr %55, align 4, !tbaa !190
  %56 = load ptr, ptr %5, align 8, !tbaa !189
  %57 = getelementptr i8, ptr %56, i64 4
  store ptr %57, ptr %5, align 8, !tbaa !189
  %58 = load ptr, ptr %9, align 8, !tbaa !210
  %59 = getelementptr i32, ptr %58, i64 4
  store ptr %59, ptr %9, align 8, !tbaa !210
  br label %27, !llvm.loop !317

60:                                               ; preds = %27
  br label %61

61:                                               ; preds = %65, %60
  %62 = load ptr, ptr %5, align 8, !tbaa !189
  %63 = load ptr, ptr %10, align 8, !tbaa !189
  %64 = icmp ult ptr %62, %63
  br i1 %64, label %65, label %73

65:                                               ; preds = %61
  call void @llvm.lifetime.start.p0(i64 4, ptr %12) #12
  %66 = load ptr, ptr %5, align 8, !tbaa !189
  %67 = getelementptr i8, ptr %66, i32 1
  store ptr %67, ptr %5, align 8, !tbaa !189
  %68 = load i8, ptr %66, align 1, !tbaa !191
  %69 = zext i8 %68 to i32
  store i32 %69, ptr %12, align 4, !tbaa !190
  %70 = load i32, ptr %12, align 4, !tbaa !190
  %71 = load ptr, ptr %9, align 8, !tbaa !210
  %72 = getelementptr i32, ptr %71, i32 1
  store ptr %72, ptr %9, align 8, !tbaa !210
  store i32 %70, ptr %71, align 4, !tbaa !190
  call void @llvm.lifetime.end.p0(i64 4, ptr %12) #12
  br label %61, !llvm.loop !318

73:                                               ; preds = %61
  call void @llvm.lifetime.end.p0(i64 8, ptr %11) #12
  br label %128

74:                                               ; preds = %4
  call void @llvm.lifetime.start.p0(i64 8, ptr %13) #12
  %75 = load ptr, ptr %5, align 8, !tbaa !189
  %76 = load i64, ptr %6, align 8, !tbaa !185
  %77 = and i64 %76, -4
  %78 = getelementptr i8, ptr %75, i64 %77
  store ptr %78, ptr %13, align 8, !tbaa !189
  br label %79

79:                                               ; preds = %83, %74
  %80 = load ptr, ptr %5, align 8, !tbaa !189
  %81 = load ptr, ptr %13, align 8, !tbaa !189
  %82 = icmp ult ptr %80, %81
  br i1 %82, label %83, label %112

83:                                               ; preds = %79
  %84 = load ptr, ptr %5, align 8, !tbaa !189
  %85 = getelementptr i8, ptr %84, i64 0
  %86 = load i8, ptr %85, align 1, !tbaa !191
  %87 = call i32 @ucs1lib_SWAB4(i8 noundef zeroext %86)
  %88 = load ptr, ptr %9, align 8, !tbaa !210
  %89 = getelementptr i32, ptr %88, i64 0
  store i32 %87, ptr %89, align 4, !tbaa !190
  %90 = load ptr, ptr %5, align 8, !tbaa !189
  %91 = getelementptr i8, ptr %90, i64 1
  %92 = load i8, ptr %91, align 1, !tbaa !191
  %93 = call i32 @ucs1lib_SWAB4(i8 noundef zeroext %92)
  %94 = load ptr, ptr %9, align 8, !tbaa !210
  %95 = getelementptr i32, ptr %94, i64 1
  store i32 %93, ptr %95, align 4, !tbaa !190
  %96 = load ptr, ptr %5, align 8, !tbaa !189
  %97 = getelementptr i8, ptr %96, i64 2
  %98 = load i8, ptr %97, align 1, !tbaa !191
  %99 = call i32 @ucs1lib_SWAB4(i8 noundef zeroext %98)
  %100 = load ptr, ptr %9, align 8, !tbaa !210
  %101 = getelementptr i32, ptr %100, i64 2
  store i32 %99, ptr %101, align 4, !tbaa !190
  %102 = load ptr, ptr %5, align 8, !tbaa !189
  %103 = getelementptr i8, ptr %102, i64 3
  %104 = load i8, ptr %103, align 1, !tbaa !191
  %105 = call i32 @ucs1lib_SWAB4(i8 noundef zeroext %104)
  %106 = load ptr, ptr %9, align 8, !tbaa !210
  %107 = getelementptr i32, ptr %106, i64 3
  store i32 %105, ptr %107, align 4, !tbaa !190
  %108 = load ptr, ptr %5, align 8, !tbaa !189
  %109 = getelementptr i8, ptr %108, i64 4
  store ptr %109, ptr %5, align 8, !tbaa !189
  %110 = load ptr, ptr %9, align 8, !tbaa !210
  %111 = getelementptr i32, ptr %110, i64 4
  store ptr %111, ptr %9, align 8, !tbaa !210
  br label %79, !llvm.loop !319

112:                                              ; preds = %79
  br label %113

113:                                              ; preds = %117, %112
  %114 = load ptr, ptr %5, align 8, !tbaa !189
  %115 = load ptr, ptr %10, align 8, !tbaa !189
  %116 = icmp ult ptr %114, %115
  br i1 %116, label %117, label %127

117:                                              ; preds = %113
  call void @llvm.lifetime.start.p0(i64 4, ptr %14) #12
  %118 = load ptr, ptr %5, align 8, !tbaa !189
  %119 = getelementptr i8, ptr %118, i32 1
  store ptr %119, ptr %5, align 8, !tbaa !189
  %120 = load i8, ptr %118, align 1, !tbaa !191
  %121 = zext i8 %120 to i32
  store i32 %121, ptr %14, align 4, !tbaa !190
  %122 = load i32, ptr %14, align 4, !tbaa !190
  %123 = trunc i32 %122 to i8
  %124 = call i32 @ucs1lib_SWAB4(i8 noundef zeroext %123)
  %125 = load ptr, ptr %9, align 8, !tbaa !210
  %126 = getelementptr i32, ptr %125, i32 1
  store ptr %126, ptr %9, align 8, !tbaa !210
  store i32 %124, ptr %125, align 4, !tbaa !190
  call void @llvm.lifetime.end.p0(i64 4, ptr %14) #12
  br label %113, !llvm.loop !320

127:                                              ; preds = %113
  call void @llvm.lifetime.end.p0(i64 8, ptr %13) #12
  br label %128

128:                                              ; preds = %127, %73
  %129 = load ptr, ptr %9, align 8, !tbaa !210
  %130 = load ptr, ptr %7, align 8, !tbaa !283
  store ptr %129, ptr %130, align 8, !tbaa !210
  %131 = load i64, ptr %6, align 8, !tbaa !185
  call void @llvm.lifetime.end.p0(i64 8, ptr %10) #12
  call void @llvm.lifetime.end.p0(i64 8, ptr %9) #12
  ret i64 %131
}