; Function Attrs: inlinehint nofree norecurse nosync nounwind memory(write, argmem: readwrite, inaccessiblemem: none) uwtable
define internal fastcc noundef i64 @ucs1lib_utf32_encode(ptr noundef readonly %0, i64 noundef returned %1, ptr noundef nonnull captures(none) %2, i32 noundef range(i32 0, 2) %3) unnamed_addr #18 {
  %5 = load ptr, ptr %2, align 8, !tbaa !262
  %6 = getelementptr i8, ptr %0, i64 %1
  %.not = icmp eq i32 %3, 0
  %7 = and i64 %1, -4
  %8 = getelementptr i8, ptr %0, i64 %7
  %9 = icmp ult ptr %0, %8
  br i1 %.not, label %34, label %10

10:                                               ; preds = %4
  br i1 %9, label %.lr.ph, label %.preheader48

.preheader48:                                     ; preds = %.lr.ph, %10
  %.044.lcssa = phi ptr [ %5, %10 ], [ %27, %.lr.ph ]
  %.0.lcssa = phi ptr [ %0, %10 ], [ %26, %.lr.ph ]
  %11 = icmp ult ptr %.0.lcssa, %6
  br i1 %11, label %.lr.ph55, label %.loopexit

.lr.ph:                                           ; preds = %10, %.lr.ph
  %.051 = phi ptr [ %26, %.lr.ph ], [ %0, %10 ]
  %.04450 = phi ptr [ %27, %.lr.ph ], [ %5, %10 ]
  %12 = load i8, ptr %.051, align 1, !tbaa !195
  %13 = zext i8 %12 to i32
  store i32 %13, ptr %.04450, align 4, !tbaa !200
  %14 = getelementptr i8, ptr %.051, i64 1
  %15 = load i8, ptr %14, align 1, !tbaa !195
  %16 = zext i8 %15 to i32
  %17 = getelementptr i8, ptr %.04450, i64 4
  store i32 %16, ptr %17, align 4, !tbaa !200
  %18 = getelementptr i8, ptr %.051, i64 2
  %19 = load i8, ptr %18, align 1, !tbaa !195
  %20 = zext i8 %19 to i32
  %21 = getelementptr i8, ptr %.04450, i64 8
  store i32 %20, ptr %21, align 4, !tbaa !200
  %22 = getelementptr i8, ptr %.051, i64 3
  %23 = load i8, ptr %22, align 1, !tbaa !195
  %24 = zext i8 %23 to i32
  %25 = getelementptr i8, ptr %.04450, i64 12
  store i32 %24, ptr %25, align 4, !tbaa !200
  %26 = getelementptr i8, ptr %.051, i64 4
  %27 = getelementptr i8, ptr %.04450, i64 16
  %28 = icmp ult ptr %26, %8
  br i1 %28, label %.lr.ph, label %.preheader48, !llvm.loop !294

.lr.ph55:                                         ; preds = %.preheader48, %.lr.ph55
  %.154 = phi ptr [ %29, %.lr.ph55 ], [ %.0.lcssa, %.preheader48 ]
  %.14553 = phi ptr [ %32, %.lr.ph55 ], [ %.044.lcssa, %.preheader48 ]
  %29 = getelementptr i8, ptr %.154, i64 1
  %30 = load i8, ptr %.154, align 1, !tbaa !195
  %31 = zext i8 %30 to i32
  %32 = getelementptr i8, ptr %.14553, i64 4
  store i32 %31, ptr %.14553, align 4, !tbaa !200
  %33 = icmp ult ptr %29, %6
  br i1 %33, label %.lr.ph55, label %.loopexit, !llvm.loop !295

34:                                               ; preds = %4
  br i1 %9, label %.lr.ph59, label %.preheader

.preheader:                                       ; preds = %.lr.ph59, %34
  %.347.lcssa = phi ptr [ %5, %34 ], [ %55, %.lr.ph59 ]
  %.2.lcssa = phi ptr [ %0, %34 ], [ %54, %.lr.ph59 ]
  %35 = icmp ult ptr %.2.lcssa, %6
  br i1 %35, label %.lr.ph64, label %.loopexit

.lr.ph59:                                         ; preds = %34, %.lr.ph59
  %.258 = phi ptr [ %54, %.lr.ph59 ], [ %0, %34 ]
  %.34757 = phi ptr [ %55, %.lr.ph59 ], [ %5, %34 ]
  %36 = load i8, ptr %.258, align 1, !tbaa !195
  %37 = zext i8 %36 to i32
  %38 = shl nuw i32 %37, 24
  store i32 %38, ptr %.34757, align 4, !tbaa !200
  %39 = getelementptr i8, ptr %.258, i64 1
  %40 = load i8, ptr %39, align 1, !tbaa !195
  %41 = zext i8 %40 to i32
  %42 = shl nuw i32 %41, 24
  %43 = getelementptr i8, ptr %.34757, i64 4
  store i32 %42, ptr %43, align 4, !tbaa !200
  %44 = getelementptr i8, ptr %.258, i64 2
  %45 = load i8, ptr %44, align 1, !tbaa !195
  %46 = zext i8 %45 to i32
  %47 = shl nuw i32 %46, 24
  %48 = getelementptr i8, ptr %.34757, i64 8
  store i32 %47, ptr %48, align 4, !tbaa !200
  %49 = getelementptr i8, ptr %.258, i64 3
  %50 = load i8, ptr %49, align 1, !tbaa !195
  %51 = zext i8 %50 to i32
  %52 = shl nuw i32 %51, 24
  %53 = getelementptr i8, ptr %.34757, i64 12
  store i32 %52, ptr %53, align 4, !tbaa !200
  %54 = getelementptr i8, ptr %.258, i64 4
  %55 = getelementptr i8, ptr %.34757, i64 16
  %56 = icmp ult ptr %54, %8
  br i1 %56, label %.lr.ph59, label %.preheader, !llvm.loop !296

.lr.ph64:                                         ; preds = %.preheader, %.lr.ph64
  %.363 = phi ptr [ %57, %.lr.ph64 ], [ %.2.lcssa, %.preheader ]
  %.462 = phi ptr [ %61, %.lr.ph64 ], [ %.347.lcssa, %.preheader ]
  %57 = getelementptr i8, ptr %.363, i64 1
  %58 = load i8, ptr %.363, align 1, !tbaa !195
  %59 = zext i8 %58 to i32
  %60 = shl nuw i32 %59, 24
  %61 = getelementptr i8, ptr %.462, i64 4
  store i32 %60, ptr %.462, align 4, !tbaa !200
  %62 = icmp ult ptr %57, %6
  br i1 %62, label %.lr.ph64, label %.loopexit, !llvm.loop !297

.loopexit:                                        ; preds = %.lr.ph55, %.lr.ph64, %.preheader48, %.preheader
  %.246 = phi ptr [ %.347.lcssa, %.preheader ], [ %.044.lcssa, %.preheader48 ], [ %61, %.lr.ph64 ], [ %32, %.lr.ph55 ]
  store ptr %.246, ptr %2, align 8, !tbaa !262
  ret i64 %1
}